target datalayout = "e-m:e-p270:32:32-p271:32:32-p272:64:64-i64:64-i128:128-f80:128-n8:16:32:64-S128"
target triple = "x86_64-pc-linux-gnu"

%struct.nameData = type { [64 x i8] }
%struct.ScanKeyData = type { i32, i16, i16, i32, i32, %struct.FmgrInfo, i64 }
%struct.FmgrInfo = type { ptr, i32, i16, i8, i8, i8, ptr, ptr, ptr }
%struct.FormData_pg_constraint = type { i32, %struct.nameData, i32, i8, i8, i8, i8, i8, i32, i32, i32, i32, i32, i8, i8, i8, i8, i16, i8, i8 }
%struct.HeapTupleData = type { i32, %struct.ItemPointerData, i32, ptr }
%struct.ItemPointerData = type { %struct.BlockIdData, i16 }
%struct.BlockIdData = type { i16, i16 }
%struct.HeapTupleHeaderData = type { %union.anon, %struct.ItemPointerData, i16, i16, i8, [0 x i8] }
%union.anon = type { %struct.HeapTupleFields }
%struct.HeapTupleFields = type { i32, i32, %union.anon.0 }
%union.anon.0 = type { i32 }

@.str.2 = private unnamed_addr constant [16 x i8] c"pg_constraint.c\00", align 1
@.str.12 = private unnamed_addr constant [46 x i8] c"constraint \22%s\22 for table \22%s\22 does not exist\00", align 1
@__func__.get_relation_constraint_oid = private unnamed_addr constant [28 x i8] c"get_relation_constraint_oid\00", align 1

; Function Attrs: inlinehint nounwind uwtable
define internal i64 @PointerGetDatum(ptr noundef %0) #3 {
  %2 = alloca ptr, align 8
  store ptr %0, ptr %2, align 8
  %3 = load ptr, ptr %2, align 8
  %4 = ptrtoint ptr %3 to i64
  ret i64 %4
}

; Function Attrs: inlinehint nounwind uwtable
define internal ptr @GETSTRUCT(ptr noundef %0) #3 {
  %2 = alloca ptr, align 8
  store ptr %0, ptr %2, align 8
  %3 = load ptr, ptr %2, align 8
  %4 = getelementptr inbounds nuw %struct.HeapTupleData, ptr %3, i32 0, i32 3
  %5 = load ptr, ptr %4, align 8
  %6 = load ptr, ptr %2, align 8
  %7 = getelementptr inbounds nuw %struct.HeapTupleData, ptr %6, i32 0, i32 3
  %8 = load ptr, ptr %7, align 8
  %9 = getelementptr inbounds nuw %struct.HeapTupleHeaderData, ptr %8, i32 0, i32 4
  %10 = load i8, ptr %9, align 2
  %11 = zext i8 %10 to i32
  %12 = sext i32 %11 to i64
  %13 = getelementptr inbounds i8, ptr %5, i64 %12
  ret ptr %13
}

; Function Attrs: inlinehint nounwind uwtable
define internal i64 @CStringGetDatum(ptr noundef %0) #3 {
  %2 = alloca ptr, align 8
  store ptr %0, ptr %2, align 8
  %3 = load ptr, ptr %2, align 8
  %4 = call i64 @PointerGetDatum(ptr noundef %3)
  ret i64 %4
}

; Function Attrs: inlinehint nounwind uwtable
define internal i64 @ObjectIdGetDatum(i32 noundef %0) #3 {
  %2 = alloca i32, align 4
  store i32 %0, ptr %2, align 4
  %3 = load i32, ptr %2, align 4
  %4 = zext i32 %3 to i64
  ret i64 %4
}

; Function Attrs: nounwind uwtable
define dso_local i32 @get_relation_constraint_oid(i32 noundef %0, ptr noundef %1, i1 noundef zeroext %2) #0 {
  %4 = alloca i32, align 4
  %5 = alloca ptr, align 8
  %6 = alloca i8, align 1
  %7 = alloca ptr, align 8
  %8 = alloca ptr, align 8
  %9 = alloca ptr, align 8
  %10 = alloca [3 x %struct.ScanKeyData], align 16
  %11 = alloca i32, align 4
  store i32 %0, ptr %4, align 4
  store ptr %1, ptr %5, align 8
  %12 = zext i1 %2 to i8
  store i8 %12, ptr %6, align 1
  call void @llvm.lifetime.start.p0(i64 8, ptr %7) #9
  call void @llvm.lifetime.start.p0(i64 8, ptr %8) #9
  call void @llvm.lifetime.start.p0(i64 8, ptr %9) #9
  call void @llvm.lifetime.start.p0(i64 216, ptr %10) #9
  call void @llvm.lifetime.start.p0(i64 4, ptr %11) #9
  store i32 0, ptr %11, align 4
  %13 = call ptr @table_open(i32 noundef 2606, i32 noundef 1)
  store ptr %13, ptr %7, align 8
  %14 = getelementptr inbounds [3 x %struct.ScanKeyData], ptr %10, i64 0, i64 0
  %15 = load i32, ptr %4, align 4
  %16 = call i64 @ObjectIdGetDatum(i32 noundef %15)
  call void @ScanKeyInit(ptr noundef %14, i16 noundef signext 9, i16 noundef zeroext 3, i32 noundef 184, i64 noundef %16)
  %17 = getelementptr inbounds [3 x %struct.ScanKeyData], ptr %10, i64 0, i64 1
  %18 = call i64 @ObjectIdGetDatum(i32 noundef 0)
  call void @ScanKeyInit(ptr noundef %17, i16 noundef signext 10, i16 noundef zeroext 3, i32 noundef 184, i64 noundef %18)
  %19 = getelementptr inbounds [3 x %struct.ScanKeyData], ptr %10, i64 0, i64 2
  %20 = load ptr, ptr %5, align 8
  %21 = call i64 @CStringGetDatum(ptr noundef %20)
  call void @ScanKeyInit(ptr noundef %19, i16 noundef signext 2, i16 noundef zeroext 3, i32 noundef 62, i64 noundef %21)
  %22 = load ptr, ptr %7, align 8
  %23 = getelementptr inbounds [3 x %struct.ScanKeyData], ptr %10, i64 0, i64 0
  %24 = call ptr @systable_beginscan(ptr noundef %22, i32 noundef 2665, i1 noundef zeroext true, ptr noundef null, i32 noundef 3, ptr noundef %23)
  store ptr %24, ptr %9, align 8
  %25 = load ptr, ptr %9, align 8
  %26 = call ptr @systable_getnext(ptr noundef %25)
  store ptr %26, ptr %8, align 8
  %27 = icmp ne ptr %26, null
  br i1 %27, label %28, label %33

28:                                               ; preds = %3
  %29 = load ptr, ptr %8, align 8
  %30 = call ptr @GETSTRUCT(ptr noundef %29)
  %31 = getelementptr inbounds nuw %struct.FormData_pg_constraint, ptr %30, i32 0, i32 0
  %32 = load i32, ptr %31, align 4
  store i32 %32, ptr %11, align 4
  br label %33

33:                                               ; preds = %28, %3
  %34 = load ptr, ptr %9, align 8
  call void @systable_endscan(ptr noundef %34)
  %35 = load i32, ptr %11, align 4
  %36 = icmp ne i32 %35, 0
  br i1 %36, label %55, label %37

37:                                               ; preds = %33
  %38 = load i8, ptr %6, align 1, !range !13, !noundef !14
  %39 = trunc i8 %38 to i1
  br i1 %39, label %55, label %40

40:                                               ; preds = %37
  br label %41

41:                                               ; preds = %40
  br i1 true, label %42, label %44

42:                                               ; preds = %41
  %43 = call zeroext i1 @errstart_cold(i32 noundef 21, ptr noundef null) #11
  br i1 %43, label %46, label %52

44:                                               ; preds = %41
  %45 = call zeroext i1 @errstart(i32 noundef 21, ptr noundef null)
  br i1 %45, label %46, label %52

46:                                               ; preds = %44, %42
  %47 = call i32 @errcode(i32 noundef 67137668)
  %48 = load ptr, ptr %5, align 8
  %49 = load i32, ptr %4, align 4
  %50 = call ptr @get_rel_name(i32 noundef %49)
  %51 = call i32 (ptr, ...) @errmsg(ptr noundef @.str.12, ptr noundef %48, ptr noundef %50)
  call void @errfinish(ptr noundef @.str.2, i32 noundef 1194, ptr noundef @__func__.get_relation_constraint_oid)
  br label %52

52:                                               ; preds = %46, %44, %42
  unreachable

53:                                               ; No predecessors!
  br label %54

54:                                               ; preds = %53
  br label %55

55:                                               ; preds = %54, %37, %33
  %56 = load ptr, ptr %7, align 8
  call void @table_close(ptr noundef %56, i32 noundef 1)
  %57 = load i32, ptr %11, align 4
  call void @llvm.lifetime.end.p0(i64 4, ptr %11) #9
  call void @llvm.lifetime.end.p0(i64 216, ptr %10) #9
  call void @llvm.lifetime.end.p0(i64 8, ptr %9) #9
  call void @llvm.lifetime.end.p0(i64 8, ptr %8) #9
  call void @llvm.lifetime.end.p0(i64 8, ptr %7) #9
  ret i32 %57
}